target datalayout = "e-m:e-p270:32:32-p271:32:32-p272:64:64-i64:64-i128:128-f80:128-n8:16:32:64-S128"
target triple = "x86_64-pc-linux-gnu"

%"class.vcg::Color4" = type { %"class.vcg::Point4" }
%"class.vcg::Point4" = type { [4 x i8] }
%class.EditMeasurePlugin = type { %class.QObject, %class.EditTool, %class.QFont, %"class.vcg::Rubberband", %"class.vcg::Rubberband", i8, i32, %"class.std::vector.16" }
%class.QObject = type { ptr, %class.QScopedPointer }
%class.QScopedPointer = type { ptr }
%class.EditTool = type { %class.MeshLabPluginLogger }
%class.MeshLabPluginLogger = type { ptr, ptr }
%class.QFont = type <{ %class.QExplicitlySharedDataPointer, i32, [4 x i8] }>
%class.QExplicitlySharedDataPointer = type { ptr }
%"class.vcg::Rubberband" = type <{ ptr, %"class.vcg::Color4", i32, %class.QPoint, %"class.vcg::Point3", %"class.vcg::Point3", i8, [7 x i8] }>
%class.QPoint = type { i32, i32 }
%"class.vcg::Point3" = type { [3 x float] }
%"class.std::vector.16" = type { %"struct.std::_Vector_base.17" }
%"struct.std::_Vector_base.17" = type { %"struct.std::_Vector_base<measure, std::allocator<measure>>::_Vector_impl" }
%"struct.std::_Vector_base<measure, std::allocator<measure>>::_Vector_impl" = type { %"struct.std::_Vector_base<measure, std::allocator<measure>>::_Vector_impl_data" }
%"struct.std::_Vector_base<measure, std::allocator<measure>>::_Vector_impl_data" = type { ptr, ptr, ptr }

; Function Attrs: mustprogress uwtable
define void @_ZN17EditMeasurePlugin15mousePressEventEP11QMouseEventR9MeshModelP6GLArea(ptr noundef nonnull align 8 dereferenceable(192) %0, ptr noundef %1, ptr noundef nonnull align 8 dereferenceable(1288) %2, ptr noundef %3) unnamed_addr #5 align 2 {
  %5 = alloca ptr, align 8
  %6 = alloca ptr, align 8
  %7 = alloca ptr, align 8
  %8 = alloca ptr, align 8
  store ptr %0, ptr %5, align 8
  store ptr %1, ptr %6, align 8
  store ptr %2, ptr %7, align 8
  store ptr %3, ptr %8, align 8
  %9 = load ptr, ptr %5, align 8
  %10 = getelementptr inbounds %class.EditMeasurePlugin, ptr %9, i32 0, i32 3
  %11 = call noundef zeroext i1 @_ZN3vcg10Rubberband7IsReadyEv(ptr noundef nonnull align 8 dereferenceable(49) %10)
  br i1 %11, label %12, label %14

12:                                               ; preds = %4
  %13 = getelementptr inbounds %class.EditMeasurePlugin, ptr %9, i32 0, i32 3
  call void @_ZN3vcg10Rubberband5ResetEv(ptr noundef nonnull align 8 dereferenceable(49) %13)
  br label %14

14:                                               ; preds = %12, %4
  %15 = load ptr, ptr %8, align 8
  call void @_ZN7QWidget6updateEv(ptr noundef nonnull align 8 dereferenceable(48) %15)
  ret void
}