; Function Attrs: mustprogress uwtable
define void @_ZN17EditMeasurePlugin15mousePressEventEP11QMouseEventR9MeshModelP6GLArea(ptr noundef nonnull align 8 dereferenceable(192) %0, ptr nocapture noundef readnone %1, ptr nocapture noundef nonnull readnone align 8 dereferenceable(1288) %2, ptr noundef %3) unnamed_addr #9 align 2 {
  %5 = getelementptr inbounds i8, ptr %0, i64 48
  %6 = tail call noundef zeroext i1 @_ZN3vcg10Rubberband7IsReadyEv(ptr noundef nonnull align 8 dereferenceable(49) %5)
  br i1 %6, label %7, label %8

7:                                                ; preds = %4
  tail call void @_ZN3vcg10Rubberband5ResetEv(ptr noundef nonnull align 8 dereferenceable(49) %5)
  br label %8

8:                                                ; preds = %7, %4
  tail call void @_ZN7QWidget6updateEv(ptr noundef nonnull align 8 dereferenceable(48) %3)
  ret void
}